target datalayout = "e-m:e-p270:32:32-p271:32:32-p272:64:64-i64:64-i128:128-f80:128-n8:16:32:64-S128"
target triple = "x86_64-pc-linux-gnu"

%struct.recent_settings_tag = type { i8, i8, i8, i8, i8, i8, i8, i8, i8, i8, i32, i32, i32, i32, i32, i32, i8, i8, i32, i32, i8, i8, i8, i32, i32, i32, i32, i32, i32, i32, i32, i32, i8, i8, i32, i32, ptr, ptr, ptr, i8, i8, ptr, ptr, ptr, ptr, ptr, i32, ptr, i8, ptr, ptr, ptr }
%class.PacketDiagram = type <{ %class.QGraphicsView, ptr, ptr, ptr, ptr, i32, [4 x i8] }>
%class.QGraphicsView = type { %class.QAbstractScrollArea }
%class.QAbstractScrollArea = type { %class.QFrame }
%class.QFrame = type { %class.QWidget }
%class.QWidget = type { %class.QObject, %class.QPaintDevice.base, ptr }
%class.QObject = type { ptr, %class.QScopedPointer }
%class.QScopedPointer = type { ptr }
%class.QPaintDevice.base = type <{ ptr, i16 }>

@recent = external global %struct.recent_settings_tag, align 8

; Function Attrs: mustprogress nounwind null_pointer_is_valid sspstrong uwtable
define linkonce_odr void @_ZN13DiagramLayout13setShowFieldsEb(ptr noundef align 8 dereferenceable_or_null(76) %0, i1 noundef zeroext %1) #8 comdat align 2 {
  %3 = alloca ptr, align 8
  %4 = alloca i8, align 1
  store ptr %0, ptr %3, align 8
  %5 = zext i1 %1 to i8
  store i8 %5, ptr %4, align 1
  %6 = load i8, ptr %4, align 1, !range !6, !noundef !7
  %7 = trunc i8 %6 to i1
  %8 = zext i1 %7 to i8
  store i8 %8, ptr getelementptr inbounds nuw (%struct.recent_settings_tag, ptr @recent, i32 0, i32 16), align 4
  ret void
}

; Function Attrs: mustprogress null_pointer_is_valid sspstrong uwtable
define void @_ZN13PacketDiagram17showFieldsToggledEb(ptr noundef align 8 dereferenceable_or_null(76) %0, i1 noundef zeroext %1) #0 align 2 {
  %3 = alloca ptr, align 8
  %4 = alloca i8, align 1
  store ptr %0, ptr %3, align 8
  %5 = zext i1 %1 to i8
  store i8 %5, ptr %4, align 1
  %6 = load ptr, ptr %3, align 8
  %7 = getelementptr inbounds nuw %class.PacketDiagram, ptr %6, i32 0, i32 1
  %8 = load ptr, ptr %7, align 8
  %9 = load i8, ptr %4, align 1, !range !6, !noundef !7
  %10 = trunc i8 %9 to i1
  call void @_ZN13DiagramLayout13setShowFieldsEb(ptr noundef align 8 dereferenceable_or_null(76) %8, i1 noundef zeroext %10)
  %11 = getelementptr inbounds nuw %class.PacketDiagram, ptr %6, i32 0, i32 3
  %12 = load ptr, ptr %11, align 8
  call void @_ZN13PacketDiagram11setRootNodeEP11_proto_node(ptr noundef align 8 dereferenceable_or_null(76) %6, ptr noundef %12)
  %13 = call noundef ptr @_ZNK19QAbstractScrollArea8viewportEv(ptr noundef align 8 dereferenceable_or_null(40) %6)
  call void @_ZN7QWidget6updateEv(ptr noundef align 8 dereferenceable_or_null(40) %13)
  ret void
}