; Function Attrs: mustprogress null_pointer_is_valid sspstrong uwtable
define void @_ZN13PacketDiagram17showFieldsToggledEb(ptr noundef align 8 dereferenceable_or_null(76) %0, i1 noundef zeroext %1) #0 align 2 {
  %3 = zext i1 %1 to i8
  store i8 %3, ptr getelementptr inbounds nuw (i8, ptr @recent, i64 36), align 4
  %4 = getelementptr inbounds nuw i8, ptr %0, i64 56
  %5 = load ptr, ptr %4, align 8
  tail call void @_ZN13PacketDiagram11setRootNodeEP11_proto_node(ptr noundef align 8 dereferenceable_or_null(76) %0, ptr noundef %5)
  %6 = tail call noundef ptr @_ZNK19QAbstractScrollArea8viewportEv(ptr noundef align 8 dereferenceable_or_null(40) %0)
  tail call void @_ZN7QWidget6updateEv(ptr noundef align 8 dereferenceable_or_null(40) %6)
  ret void
}